target datalayout = "e-m:e-p270:32:32-p271:32:32-p272:64:64-i64:64-i128:128-f80:128-n8:16:32:64-S128"
target triple = "x86_64-pc-linux-gnu"

%struct.active_request_slot = type { ptr, i32, i32, i64, ptr, ptr, ptr, ptr, ptr }
%struct.fd_set = type { [16 x i64] }
%struct.timeval = type { i64, i64 }

@curlm = internal global ptr null, align 8

; Function Attrs: nounwind uwtable
define dso_local void @run_active_slot(ptr noundef %0) #0 {
  %2 = alloca ptr, align 8
  %3 = alloca %struct.fd_set, align 8
  %4 = alloca %struct.fd_set, align 8
  %5 = alloca %struct.fd_set, align 8
  %6 = alloca i32, align 4
  %7 = alloca %struct.timeval, align 8
  %8 = alloca i32, align 4
  %9 = alloca i64, align 8
  %10 = alloca i32, align 4
  %11 = alloca i32, align 4
  %12 = alloca ptr, align 8
  %13 = alloca i32, align 4
  %14 = alloca ptr, align 8
  %15 = alloca i32, align 4
  %16 = alloca ptr, align 8
  store ptr %0, ptr %2, align 8, !tbaa !88
  call void @llvm.lifetime.start.p0(i64 128, ptr %3) #11
  call void @llvm.lifetime.start.p0(i64 128, ptr %4) #11
  call void @llvm.lifetime.start.p0(i64 128, ptr %5) #11
  call void @llvm.lifetime.start.p0(i64 4, ptr %6) #11
  call void @llvm.lifetime.start.p0(i64 16, ptr %7) #11
  call void @llvm.lifetime.start.p0(i64 4, ptr %8) #11
  store i32 0, ptr %8, align 4, !tbaa !19
  %17 = load ptr, ptr %2, align 8, !tbaa !88
  %18 = getelementptr inbounds nuw %struct.active_request_slot, ptr %17, i32 0, i32 4
  store ptr %8, ptr %18, align 8, !tbaa !101
  br label %19

19:                                               ; preds = %123, %120, %1
  %20 = load i32, ptr %8, align 4, !tbaa !19
  %21 = icmp ne i32 %20, 0
  %22 = xor i1 %21, true
  br i1 %22, label %23, label %124

23:                                               ; preds = %19
  call void @step_active_slots()
  %24 = load ptr, ptr %2, align 8, !tbaa !88
  %25 = getelementptr inbounds nuw %struct.active_request_slot, ptr %24, i32 0, i32 1
  %26 = load i32, ptr %25, align 8, !tbaa !97
  %27 = icmp ne i32 %26, 0
  br i1 %27, label %28, label %123

28:                                               ; preds = %23
  call void @llvm.lifetime.start.p0(i64 8, ptr %9) #11
  %29 = load ptr, ptr @curlm, align 8, !tbaa !11
  %30 = call i32 @curl_multi_timeout(ptr noundef %29, ptr noundef %9)
  %31 = load i64, ptr %9, align 8, !tbaa !9
  %32 = icmp eq i64 %31, 0
  br i1 %32, label %33, label %34

33:                                               ; preds = %28
  store i32 2, ptr %10, align 4
  br label %120, !llvm.loop !128

34:                                               ; preds = %28
  %35 = load i64, ptr %9, align 8, !tbaa !9
  %36 = icmp eq i64 %35, -1
  br i1 %36, label %37, label %40

37:                                               ; preds = %34
  %38 = getelementptr inbounds nuw %struct.timeval, ptr %7, i32 0, i32 0
  store i64 0, ptr %38, align 8, !tbaa !129
  %39 = getelementptr inbounds nuw %struct.timeval, ptr %7, i32 0, i32 1
  store i64 50000, ptr %39, align 8, !tbaa !131
  br label %48

40:                                               ; preds = %34
  %41 = load i64, ptr %9, align 8, !tbaa !9
  %42 = sdiv i64 %41, 1000
  %43 = getelementptr inbounds nuw %struct.timeval, ptr %7, i32 0, i32 0
  store i64 %42, ptr %43, align 8, !tbaa !129
  %44 = load i64, ptr %9, align 8, !tbaa !9
  %45 = srem i64 %44, 1000
  %46 = mul nsw i64 %45, 1000
  %47 = getelementptr inbounds nuw %struct.timeval, ptr %7, i32 0, i32 1
  store i64 %46, ptr %47, align 8, !tbaa !131
  br label %48

48:                                               ; preds = %40, %37
  br label %49

49:                                               ; preds = %48
  store i32 -1, ptr %6, align 4, !tbaa !19
  br label %50

50:                                               ; preds = %49
  call void @llvm.lifetime.start.p0(i64 4, ptr %11) #11
  call void @llvm.lifetime.start.p0(i64 8, ptr %12) #11
  store ptr %3, ptr %12, align 8, !tbaa !11
  store i32 0, ptr %11, align 4, !tbaa !19
  br label %51

51:                                               ; preds = %61, %50
  %52 = load i32, ptr %11, align 4, !tbaa !19
  %53 = zext i32 %52 to i64
  %54 = icmp ult i64 %53, 16
  br i1 %54, label %55, label %64

55:                                               ; preds = %51
  %56 = load ptr, ptr %12, align 8, !tbaa !11
  %57 = getelementptr inbounds nuw %struct.fd_set, ptr %56, i32 0, i32 0
  %58 = load i32, ptr %11, align 4, !tbaa !19
  %59 = zext i32 %58 to i64
  %60 = getelementptr inbounds nuw [16 x i64], ptr %57, i64 0, i64 %59
  store i64 0, ptr %60, align 8, !tbaa !9
  br label %61

61:                                               ; preds = %55
  %62 = load i32, ptr %11, align 4, !tbaa !19
  %63 = add i32 %62, 1
  store i32 %63, ptr %11, align 4, !tbaa !19
  br label %51, !llvm.loop !132

64:                                               ; preds = %51
  call void @llvm.lifetime.end.p0(i64 8, ptr %12) #11
  call void @llvm.lifetime.end.p0(i64 4, ptr %11) #11
  br label %65

65:                                               ; preds = %64
  br label %66

66:                                               ; preds = %65
  br label %67

67:                                               ; preds = %66
  call void @llvm.lifetime.start.p0(i64 4, ptr %13) #11
  call void @llvm.lifetime.start.p0(i64 8, ptr %14) #11
  store ptr %4, ptr %14, align 8, !tbaa !11
  store i32 0, ptr %13, align 4, !tbaa !19
  br label %68

68:                                               ; preds = %78, %67
  %69 = load i32, ptr %13, align 4, !tbaa !19
  %70 = zext i32 %69 to i64
  %71 = icmp ult i64 %70, 16
  br i1 %71, label %72, label %81

72:                                               ; preds = %68
  %73 = load ptr, ptr %14, align 8, !tbaa !11
  %74 = getelementptr inbounds nuw %struct.fd_set, ptr %73, i32 0, i32 0
  %75 = load i32, ptr %13, align 4, !tbaa !19
  %76 = zext i32 %75 to i64
  %77 = getelementptr inbounds nuw [16 x i64], ptr %74, i64 0, i64 %76
  store i64 0, ptr %77, align 8, !tbaa !9
  br label %78

78:                                               ; preds = %72
  %79 = load i32, ptr %13, align 4, !tbaa !19
  %80 = add i32 %79, 1
  store i32 %80, ptr %13, align 4, !tbaa !19
  br label %68, !llvm.loop !133

81:                                               ; preds = %68
  call void @llvm.lifetime.end.p0(i64 8, ptr %14) #11
  call void @llvm.lifetime.end.p0(i64 4, ptr %13) #11
  br label %82

82:                                               ; preds = %81
  br label %83

83:                                               ; preds = %82
  br label %84

84:                                               ; preds = %83
  call void @llvm.lifetime.start.p0(i64 4, ptr %15) #11
  call void @llvm.lifetime.start.p0(i64 8, ptr %16) #11
  store ptr %5, ptr %16, align 8, !tbaa !11
  store i32 0, ptr %15, align 4, !tbaa !19
  br label %85

85:                                               ; preds = %95, %84
  %86 = load i32, ptr %15, align 4, !tbaa !19
  %87 = zext i32 %86 to i64
  %88 = icmp ult i64 %87, 16
  br i1 %88, label %89, label %98

89:                                               ; preds = %85
  %90 = load ptr, ptr %16, align 8, !tbaa !11
  %91 = getelementptr inbounds nuw %struct.fd_set, ptr %90, i32 0, i32 0
  %92 = load i32, ptr %15, align 4, !tbaa !19
  %93 = zext i32 %92 to i64
  %94 = getelementptr inbounds nuw [16 x i64], ptr %91, i64 0, i64 %93
  store i64 0, ptr %94, align 8, !tbaa !9
  br label %95

95:                                               ; preds = %89
  %96 = load i32, ptr %15, align 4, !tbaa !19
  %97 = add i32 %96, 1
  store i32 %97, ptr %15, align 4, !tbaa !19
  br label %85, !llvm.loop !134

98:                                               ; preds = %85
  call void @llvm.lifetime.end.p0(i64 8, ptr %16) #11
  call void @llvm.lifetime.end.p0(i64 4, ptr %15) #11
  br label %99

99:                                               ; preds = %98
  br label %100

100:                                              ; preds = %99
  %101 = load ptr, ptr @curlm, align 8, !tbaa !11
  %102 = call i32 @curl_multi_fdset(ptr noundef %101, ptr noundef %3, ptr noundef %4, ptr noundef %5, ptr noundef %6)
  %103 = load i32, ptr %6, align 4, !tbaa !19
  %104 = icmp slt i32 %103, 0
  br i1 %104, label %105, label %116

105:                                              ; preds = %100
  %106 = getelementptr inbounds nuw %struct.timeval, ptr %7, i32 0, i32 0
  %107 = load i64, ptr %106, align 8, !tbaa !129
  %108 = icmp sgt i64 %107, 0
  br i1 %108, label %113, label %109

109:                                              ; preds = %105
  %110 = getelementptr inbounds nuw %struct.timeval, ptr %7, i32 0, i32 1
  %111 = load i64, ptr %110, align 8, !tbaa !131
  %112 = icmp sgt i64 %111, 50000
  br i1 %112, label %113, label %116

113:                                              ; preds = %109, %105
  %114 = getelementptr inbounds nuw %struct.timeval, ptr %7, i32 0, i32 0
  store i64 0, ptr %114, align 8, !tbaa !129
  %115 = getelementptr inbounds nuw %struct.timeval, ptr %7, i32 0, i32 1
  store i64 50000, ptr %115, align 8, !tbaa !131
  br label %116

116:                                              ; preds = %113, %109, %100
  %117 = load i32, ptr %6, align 4, !tbaa !19
  %118 = add nsw i32 %117, 1
  %119 = call i32 @select(i32 noundef %118, ptr noundef %3, ptr noundef %4, ptr noundef %5, ptr noundef %7)
  store i32 0, ptr %10, align 4
  br label %120

120:                                              ; preds = %116, %33
  call void @llvm.lifetime.end.p0(i64 8, ptr %9) #11
  %121 = load i32, ptr %10, align 4
  switch i32 %121, label %127 [
    i32 0, label %122
    i32 2, label %19
  ]

122:                                              ; preds = %120
  br label %123

123:                                              ; preds = %122, %23
  br label %19, !llvm.loop !128

124:                                              ; preds = %19
  %125 = load ptr, ptr %2, align 8, !tbaa !88
  %126 = getelementptr inbounds nuw %struct.active_request_slot, ptr %125, i32 0, i32 4
  store ptr null, ptr %126, align 8, !tbaa !101
  call void @llvm.lifetime.end.p0(i64 4, ptr %8) #11
  call void @llvm.lifetime.end.p0(i64 16, ptr %7) #11
  call void @llvm.lifetime.end.p0(i64 4, ptr %6) #11
  call void @llvm.lifetime.end.p0(i64 128, ptr %5) #11
  call void @llvm.lifetime.end.p0(i64 128, ptr %4) #11
  call void @llvm.lifetime.end.p0(i64 128, ptr %3) #11
  ret void

127:                                              ; preds = %120
  unreachable
}