; Function Attrs: nounwind uwtable
define dso_local void @run_active_slot(ptr noundef captures(none) initializes((24, 32)) %0) local_unnamed_addr #3 {
  %2 = alloca %struct.fd_set, align 8
  %3 = alloca %struct.fd_set, align 8
  %4 = alloca %struct.fd_set, align 8
  %5 = alloca i32, align 4
  %6 = alloca %struct.timeval, align 8
  %7 = alloca i32, align 4
  %8 = alloca i64, align 8
  call void @llvm.lifetime.start.p0(i64 128, ptr nonnull %2) #22
  call void @llvm.lifetime.start.p0(i64 128, ptr nonnull %3) #22
  call void @llvm.lifetime.start.p0(i64 128, ptr nonnull %4) #22
  call void @llvm.lifetime.start.p0(i64 4, ptr nonnull %5) #22
  call void @llvm.lifetime.start.p0(i64 16, ptr nonnull %6) #22
  call void @llvm.lifetime.start.p0(i64 4, ptr nonnull %7) #22
  store i32 0, ptr %7, align 4, !tbaa !38
  %9 = getelementptr inbounds nuw i8, ptr %0, i64 24
  store ptr %7, ptr %9, align 8, !tbaa !98
  %10 = getelementptr inbounds nuw i8, ptr %0, i64 8
  %11 = getelementptr inbounds nuw i8, ptr %6, i64 8
  br label %12

thread-pre-split.sink.split:                      ; preds = %14, %.thread
  call void @llvm.lifetime.end.p0(i64 8, ptr nonnull %8) #22
  br label %thread-pre-split

thread-pre-split:                                 ; preds = %thread-pre-split.sink.split, %12
  %.pr = load i32, ptr %7, align 4, !tbaa !38
  %.not = icmp eq i32 %.pr, 0
  br i1 %.not, label %12, label %35

12:                                               ; preds = %1, %thread-pre-split
  call void @step_active_slots()
  %13 = load i32, ptr %10, align 8, !tbaa !90
  %.not24 = icmp eq i32 %13, 0
  br i1 %.not24, label %thread-pre-split, label %14, !llvm.loop !119

14:                                               ; preds = %12
  call void @llvm.lifetime.start.p0(i64 8, ptr nonnull %8) #22
  %15 = load ptr, ptr @curlm, align 8, !tbaa !62
  %16 = call i32 @curl_multi_timeout(ptr noundef %15, ptr noundef nonnull %8) #22
  %17 = load i64, ptr %8, align 8, !tbaa !63
  switch i64 %17, label %19 [
    i64 0, label %thread-pre-split.sink.split
    i64 -1, label %18
  ]

18:                                               ; preds = %14
  store i64 0, ptr %6, align 8, !tbaa !120
  br label %.preheader27.preheader

19:                                               ; preds = %14
  %20 = sdiv i64 %17, 1000
  store i64 %20, ptr %6, align 8, !tbaa !120
  %21 = srem i64 %17, 1000
  %22 = mul nsw i64 %21, 1000
  br label %.preheader27.preheader

.preheader27.preheader:                           ; preds = %18, %19
  %storemerge = phi i64 [ 50000, %18 ], [ %22, %19 ]
  store i64 %storemerge, ptr %11, align 8, !tbaa !122
  store i32 -1, ptr %5, align 4, !tbaa !38
  call void @llvm.memset.p0.i64(ptr noundef nonnull align 8 dereferenceable(128) %2, i8 0, i64 128, i1 false), !tbaa !63
  call void @llvm.memset.p0.i64(ptr noundef nonnull align 8 dereferenceable(128) %3, i8 0, i64 128, i1 false), !tbaa !63
  call void @llvm.memset.p0.i64(ptr noundef nonnull align 8 dereferenceable(128) %4, i8 0, i64 128, i1 false), !tbaa !63
  %23 = load ptr, ptr @curlm, align 8, !tbaa !62
  %24 = call i32 @curl_multi_fdset(ptr noundef %23, ptr noundef nonnull %2, ptr noundef nonnull %3, ptr noundef nonnull %4, ptr noundef nonnull %5) #22
  %25 = load i32, ptr %5, align 4, !tbaa !38
  %26 = icmp slt i32 %25, 0
  br i1 %26, label %27, label %.thread

27:                                               ; preds = %.preheader27.preheader
  %28 = load i64, ptr %6, align 8, !tbaa !120
  %29 = icmp sgt i64 %28, 0
  %30 = load i64, ptr %11, align 8
  %31 = icmp sgt i64 %30, 50000
  %or.cond = select i1 %29, i1 true, i1 %31
  br i1 %or.cond, label %32, label %.thread

32:                                               ; preds = %27
  store i64 0, ptr %6, align 8, !tbaa !120
  store i64 50000, ptr %11, align 8, !tbaa !122
  br label %.thread

.thread:                                          ; preds = %.preheader27.preheader, %32, %27
  %33 = add nsw i32 %25, 1
  %34 = call i32 @select(i32 noundef %33, ptr noundef nonnull %2, ptr noundef nonnull %3, ptr noundef nonnull %4, ptr noundef nonnull %6) #22
  br label %thread-pre-split.sink.split, !llvm.loop !119

35:                                               ; preds = %thread-pre-split
  store ptr null, ptr %9, align 8, !tbaa !98
  call void @llvm.lifetime.end.p0(i64 4, ptr nonnull %7) #22
  call void @llvm.lifetime.end.p0(i64 16, ptr nonnull %6) #22
  call void @llvm.lifetime.end.p0(i64 4, ptr nonnull %5) #22
  call void @llvm.lifetime.end.p0(i64 128, ptr nonnull %4) #22
  call void @llvm.lifetime.end.p0(i64 128, ptr nonnull %3) #22
  call void @llvm.lifetime.end.p0(i64 128, ptr nonnull %2) #22
  ret void
}